target datalayout = "e-m:e-p270:32:32-p271:32:32-p272:64:64-i64:64-i128:128-f80:128-n8:16:32:64-S128"
target triple = "x86_64-pc-linux-gnu"

%struct.ggml_tensor = type { i32, ptr, [4 x i64], [4 x i64], i32, [16 x i32], i32, [10 x ptr], ptr, i64, ptr, [64 x i8], ptr, [8 x i8] }

@.str.13 = private unnamed_addr constant [23 x i8] c"GGML_ASSERT(%s) failed\00", align 1
@.str.463 = private unnamed_addr constant [118 x i8] c"generated/home/dtcxzyw/WorkSpace/Projects/compilers/llvm-opt-benchmark/bench/llama.cpp/llama.cpp/ggml/src/ggml-impl.h\00", align 1
@.str.464 = private unnamed_addr constant [15 x i8] c"tensor != NULL\00", align 1

; Function Attrs: nounwind uwtable
define internal void @ggml_set_op_params(ptr noundef %0, ptr noundef %1, i64 noundef %2) #5 {
  %4 = alloca ptr, align 8
  %5 = alloca ptr, align 8
  %6 = alloca i64, align 8
  store ptr %0, ptr %4, align 8, !tbaa !54
  store ptr %1, ptr %5, align 8, !tbaa !18
  store i64 %2, ptr %6, align 8, !tbaa !19
  %7 = load ptr, ptr %4, align 8, !tbaa !54
  %8 = icmp ne ptr %7, null
  br i1 %8, label %10, label %9

9:                                                ; preds = %3
  call void (ptr, i32, ptr, ...) @ggml_abort(ptr noundef @.str.463, i32 noundef 112, ptr noundef @.str.13, ptr noundef @.str.464) #18
  unreachable

10:                                               ; preds = %3
  %11 = load ptr, ptr %4, align 8, !tbaa !54
  %12 = getelementptr inbounds nuw %struct.ggml_tensor, ptr %11, i32 0, i32 5
  %13 = getelementptr inbounds [16 x i32], ptr %12, i64 0, i64 0
  %14 = load ptr, ptr %5, align 8, !tbaa !18
  %15 = load i64, ptr %6, align 8, !tbaa !19
  call void @llvm.memcpy.p0.p0.i64(ptr align 4 %13, ptr align 1 %14, i64 %15, i1 false)
  ret void
}

; Function Attrs: nounwind uwtable
define ptr @ggml_new_tensor(ptr noundef %0, i32 noundef %1, i32 noundef %2, ptr noundef %3) #5 {
  %5 = alloca ptr, align 8
  %6 = alloca i32, align 4
  %7 = alloca i32, align 4
  %8 = alloca ptr, align 8
  store ptr %0, ptr %5, align 8, !tbaa !48
  store i32 %1, ptr %6, align 4, !tbaa !8
  store i32 %2, ptr %7, align 4, !tbaa !8
  store ptr %3, ptr %8, align 8, !tbaa !88
  %9 = load ptr, ptr %5, align 8, !tbaa !48
  %10 = load i32, ptr %6, align 4, !tbaa !8
  %11 = load i32, ptr %7, align 4, !tbaa !8
  %12 = load ptr, ptr %8, align 8, !tbaa !88
  %13 = call ptr @ggml_new_tensor_impl(ptr noundef %9, i32 noundef %10, i32 noundef %11, ptr noundef %12, ptr noundef null, i64 noundef 0)
  ret ptr %13
}

; Function Attrs: nounwind uwtable
define ptr @ggml_im2col_back(ptr noundef %0, ptr noundef %1, ptr noundef %2, ptr noundef %3, i32 noundef %4, i32 noundef %5, i32 noundef %6, i32 noundef %7, i32 noundef %8, i32 noundef %9, i1 noundef zeroext %10) #5 {
  %12 = alloca ptr, align 8
  %13 = alloca ptr, align 8
  %14 = alloca ptr, align 8
  %15 = alloca ptr, align 8
  %16 = alloca i32, align 4
  %17 = alloca i32, align 4
  %18 = alloca i32, align 4
  %19 = alloca i32, align 4
  %20 = alloca i32, align 4
  %21 = alloca i32, align 4
  %22 = alloca i8, align 1
  %23 = alloca ptr, align 8
  %24 = alloca [7 x i32], align 16
  store ptr %0, ptr %12, align 8, !tbaa !48
  store ptr %1, ptr %13, align 8, !tbaa !54
  store ptr %2, ptr %14, align 8, !tbaa !54
  store ptr %3, ptr %15, align 8, !tbaa !88
  store i32 %4, ptr %16, align 4, !tbaa !8
  store i32 %5, ptr %17, align 4, !tbaa !8
  store i32 %6, ptr %18, align 4, !tbaa !8
  store i32 %7, ptr %19, align 4, !tbaa !8
  store i32 %8, ptr %20, align 4, !tbaa !8
  store i32 %9, ptr %21, align 4, !tbaa !8
  %25 = zext i1 %10 to i8
  store i8 %25, ptr %22, align 1, !tbaa !72
  call void @llvm.lifetime.start.p0(i64 8, ptr %23) #14
  %26 = load ptr, ptr %12, align 8, !tbaa !48
  %27 = load ptr, ptr %15, align 8, !tbaa !88
  %28 = call ptr @ggml_new_tensor(ptr noundef %26, i32 noundef 0, i32 noundef 4, ptr noundef %27)
  store ptr %28, ptr %23, align 8, !tbaa !54
  call void @llvm.lifetime.start.p0(i64 28, ptr %24) #14
  %29 = load i32, ptr %16, align 4, !tbaa !8
  store i32 %29, ptr %24, align 4, !tbaa !8
  %30 = getelementptr inbounds i32, ptr %24, i64 1
  %31 = load i32, ptr %17, align 4, !tbaa !8
  store i32 %31, ptr %30, align 4, !tbaa !8
  %32 = getelementptr inbounds i32, ptr %24, i64 2
  %33 = load i32, ptr %18, align 4, !tbaa !8
  store i32 %33, ptr %32, align 4, !tbaa !8
  %34 = getelementptr inbounds i32, ptr %24, i64 3
  %35 = load i32, ptr %19, align 4, !tbaa !8
  store i32 %35, ptr %34, align 4, !tbaa !8
  %36 = getelementptr inbounds i32, ptr %24, i64 4
  %37 = load i32, ptr %20, align 4, !tbaa !8
  store i32 %37, ptr %36, align 4, !tbaa !8
  %38 = getelementptr inbounds i32, ptr %24, i64 5
  %39 = load i32, ptr %21, align 4, !tbaa !8
  store i32 %39, ptr %38, align 4, !tbaa !8
  %40 = getelementptr inbounds i32, ptr %24, i64 6
  %41 = load i8, ptr %22, align 1, !tbaa !72, !range !66, !noundef !67
  %42 = trunc i8 %41 to i1
  %43 = select i1 %42, i32 1, i32 0
  store i32 %43, ptr %40, align 4, !tbaa !8
  %44 = load ptr, ptr %23, align 8, !tbaa !54
  %45 = getelementptr inbounds [7 x i32], ptr %24, i64 0, i64 0
  call void @ggml_set_op_params(ptr noundef %44, ptr noundef %45, i64 noundef 28)
  %46 = load ptr, ptr %23, align 8, !tbaa !54
  %47 = getelementptr inbounds nuw %struct.ggml_tensor, ptr %46, i32 0, i32 4
  store i32 49, ptr %47, align 8, !tbaa !68
  %48 = load ptr, ptr %13, align 8, !tbaa !54
  %49 = load ptr, ptr %23, align 8, !tbaa !54
  %50 = getelementptr inbounds nuw %struct.ggml_tensor, ptr %49, i32 0, i32 7
  %51 = getelementptr inbounds [10 x ptr], ptr %50, i64 0, i64 0
  store ptr %48, ptr %51, align 8, !tbaa !54
  %52 = load ptr, ptr %14, align 8, !tbaa !54
  %53 = load ptr, ptr %23, align 8, !tbaa !54
  %54 = getelementptr inbounds nuw %struct.ggml_tensor, ptr %53, i32 0, i32 7
  %55 = getelementptr inbounds [10 x ptr], ptr %54, i64 0, i64 1
  store ptr %52, ptr %55, align 8, !tbaa !54
  %56 = load ptr, ptr %23, align 8, !tbaa !54
  call void @llvm.lifetime.end.p0(i64 28, ptr %24) #14
  call void @llvm.lifetime.end.p0(i64 8, ptr %23) #14
  ret ptr %56
}