; Function Attrs: nounwind uwtable
define noundef ptr @ggml_im2col_back(ptr noundef captures(none) %0, ptr noundef %1, ptr noundef %2, ptr noundef readonly captures(none) %3, i32 noundef %4, i32 noundef %5, i32 noundef %6, i32 noundef %7, i32 noundef %8, i32 noundef %9, i1 noundef zeroext %10) local_unnamed_addr #4 {
  %12 = tail call fastcc noundef ptr @ggml_new_tensor_impl(ptr noundef %0, i32 noundef 0, i32 noundef 4, ptr noundef readonly %3, ptr noundef null, i64 noundef 0)
  %.not.i = icmp eq ptr %12, null
  br i1 %.not.i, label %13, label %ggml_set_op_params.exit

13:                                               ; preds = %11
  tail call void (ptr, i32, ptr, ...) @ggml_abort(ptr noundef nonnull @.str.463, i32 noundef 112, ptr noundef nonnull @.str.13, ptr noundef nonnull @.str.464) #47
  unreachable

ggml_set_op_params.exit:                          ; preds = %11
  %14 = zext i1 %10 to i32
  %15 = getelementptr inbounds nuw i8, ptr %12, i64 84
  store i32 %4, ptr %15, align 4
  %.sroa.4.0..sroa_idx = getelementptr inbounds nuw i8, ptr %12, i64 88
  store i32 %5, ptr %.sroa.4.0..sroa_idx, align 4
  %.sroa.5.0..sroa_idx = getelementptr inbounds nuw i8, ptr %12, i64 92
  store i32 %6, ptr %.sroa.5.0..sroa_idx, align 4
  %.sroa.6.0..sroa_idx = getelementptr inbounds nuw i8, ptr %12, i64 96
  store i32 %7, ptr %.sroa.6.0..sroa_idx, align 4
  %.sroa.7.0..sroa_idx = getelementptr inbounds nuw i8, ptr %12, i64 100
  store i32 %8, ptr %.sroa.7.0..sroa_idx, align 4
  %.sroa.8.0..sroa_idx = getelementptr inbounds nuw i8, ptr %12, i64 104
  store i32 %9, ptr %.sroa.8.0..sroa_idx, align 4
  %.sroa.9.0..sroa_idx = getelementptr inbounds nuw i8, ptr %12, i64 108
  store i32 %14, ptr %.sroa.9.0..sroa_idx, align 4
  %16 = getelementptr inbounds nuw i8, ptr %12, i64 80
  store i32 49, ptr %16, align 8, !tbaa !55
  %17 = getelementptr inbounds nuw i8, ptr %12, i64 152
  store ptr %1, ptr %17, align 8, !tbaa !81
  %18 = getelementptr inbounds nuw i8, ptr %12, i64 160
  store ptr %2, ptr %18, align 8, !tbaa !81
  ret ptr %12
}